(dp1
S'lrate'
p2
F0.0001
sS'optimizer'
p3
S'adadelta'
p4
sS'alpha_c'
p5
F0
sS'n_words'
p6
I30000
sS'batch_size'
p7
I32
sS'decay_c'
p8
F0
sS'patience'
p9
I10
sS'decoder'
p10
S'gru_cond'
p11
sS'valid_datasets'
p12
(lp13
S'/home/ql516/NLUDR/NMT-EnglishToChinese/data/zh/no_seg/zh.dev.no_seg.tok'
p14
aS'/home/ql516/NLUDR/NMT-EnglishToChinese/data/en/dev.en.tok'
p15
asS'max_epochs'
p16
I5000
sS'dispFreq'
p17
I10
sS'encoder'
p18
S'gru'
p19
sS'validFreq'
p20
I5000
sS'dim'
p21
I1024
sS'use_dropout'
p22
I00
sS'datasets'
p23
(lp24
S'/home/ql516/NLUDR/NMT-EnglishToChinese/data/zh/no_seg/zh.train.no_seg.tok'
p25
aS'/home/ql516/NLUDR/NMT-EnglishToChinese/data/en/train.en.tok'
p26
asS'dim_word'
p27
I500
sS'sampleFreq'
p28
I1000
sS'dictionaries'
p29
(lp30
S'/home/ql516/NLUDR/NMT-EnglishToChinese/data/zh/no_seg/zh.train.no_seg.tok.pkl'
p31
aS'/home/ql516/NLUDR/NMT-EnglishToChinese/data/en/train.en.tok.pkl'
p32
asS'finish_after'
p33
I10000000
sS'clip_c'
p34
F1
sS'saveFreq'
p35
I5000
sS'n_words_src'
p36
I30000
sS'maxlen'
p37
I50
sS'saveto'
p38
S'/home/ql516/NLUDR/NMT-EnglishToChinese/code/experiments/attention_nmt_no_seg/model.npz'
p39
sS'valid_batch_size'
p40
I32
sS'reload_'
p41
I00
s.